target datalayout = "e-m:e-p270:32:32-p271:32:32-p272:64:64-i64:64-i128:128-f80:128-n8:16:32:64-S128"
target triple = "x86_64-pc-linux-gnu"

; Function Attrs: inlinehint nounwind uwtable
define internal i64 @mbedtls_ct_if(i64 noundef %0, i64 noundef %1, i64 noundef %2) #3 {
  %4 = alloca i64, align 8
  %5 = alloca i64, align 8
  %6 = alloca i64, align 8
  store i64 %0, ptr %4, align 8, !tbaa !3
  store i64 %1, ptr %5, align 8, !tbaa !3
  store i64 %2, ptr %6, align 8, !tbaa !3
  %7 = load i64, ptr %4, align 8, !tbaa !3
  %8 = load i64, ptr %5, align 8, !tbaa !3
  %9 = load i64, ptr %6, align 8, !tbaa !3
  %10 = call { i64, i64, i64 } asm sideeffect "and  $0, $1                      \0A\09not  $0                              \0A\09and  $0, $2                      \0A\09or   $1, $2                            \0A\09", "=&{di},=&{si},=&{ax},0,1,2,~{dirflag},~{fpsr},~{flags}"(i64 %7, i64 %8, i64 %9) #7, !srcloc !57
  %11 = extractvalue { i64, i64, i64 } %10, 0
  %12 = extractvalue { i64, i64, i64 } %10, 1
  %13 = extractvalue { i64, i64, i64 } %10, 2
  store i64 %11, ptr %4, align 8, !tbaa !3
  store i64 %12, ptr %5, align 8, !tbaa !3
  store i64 %13, ptr %6, align 8, !tbaa !3
  %14 = load i64, ptr %6, align 8, !tbaa !3
  ret i64 %14
}

; Function Attrs: inlinehint nounwind uwtable
define internal i64 @mbedtls_ct_mpi_uint_if(i64 noundef %0, i64 noundef %1, i64 noundef %2) #3 {
  %4 = alloca i64, align 8
  %5 = alloca i64, align 8
  %6 = alloca i64, align 8
  store i64 %0, ptr %4, align 8, !tbaa !3
  store i64 %1, ptr %5, align 8, !tbaa !3
  store i64 %2, ptr %6, align 8, !tbaa !3
  %7 = load i64, ptr %4, align 8, !tbaa !3
  %8 = load i64, ptr %5, align 8, !tbaa !3
  %9 = load i64, ptr %6, align 8, !tbaa !3
  %10 = call i64 @mbedtls_ct_if(i64 noundef %7, i64 noundef %8, i64 noundef %9)
  ret i64 %10
}

; Function Attrs: nounwind uwtable
define hidden void @mbedtls_mpi_core_cond_assign(ptr noundef %0, ptr noundef %1, i64 noundef %2, i64 noundef %3) #0 {
  %5 = alloca ptr, align 8
  %6 = alloca ptr, align 8
  %7 = alloca i64, align 8
  %8 = alloca i64, align 8
  %9 = alloca i64, align 8
  store ptr %0, ptr %5, align 8, !tbaa !7
  store ptr %1, ptr %6, align 8, !tbaa !7
  store i64 %2, ptr %7, align 8, !tbaa !3
  store i64 %3, ptr %8, align 8, !tbaa !3
  %10 = load ptr, ptr %5, align 8, !tbaa !7
  %11 = load ptr, ptr %6, align 8, !tbaa !7
  %12 = icmp eq ptr %10, %11
  br i1 %12, label %13, label %14

13:                                               ; preds = %4
  br label %37

14:                                               ; preds = %4
  call void @llvm.lifetime.start.p0(i64 8, ptr %9) #7
  store i64 0, ptr %9, align 8, !tbaa !3
  br label %15

15:                                               ; preds = %34, %14
  %16 = load i64, ptr %9, align 8, !tbaa !3
  %17 = load i64, ptr %7, align 8, !tbaa !3
  %18 = icmp ult i64 %16, %17
  br i1 %18, label %20, label %19

19:                                               ; preds = %15
  call void @llvm.lifetime.end.p0(i64 8, ptr %9) #7
  br label %37

20:                                               ; preds = %15
  %21 = load i64, ptr %8, align 8, !tbaa !3
  %22 = load ptr, ptr %6, align 8, !tbaa !7
  %23 = load i64, ptr %9, align 8, !tbaa !3
  %24 = getelementptr inbounds nuw i64, ptr %22, i64 %23
  %25 = load i64, ptr %24, align 8, !tbaa !3
  %26 = load ptr, ptr %5, align 8, !tbaa !7
  %27 = load i64, ptr %9, align 8, !tbaa !3
  %28 = getelementptr inbounds nuw i64, ptr %26, i64 %27
  %29 = load i64, ptr %28, align 8, !tbaa !3
  %30 = call i64 @mbedtls_ct_mpi_uint_if(i64 noundef %21, i64 noundef %25, i64 noundef %29)
  %31 = load ptr, ptr %5, align 8, !tbaa !7
  %32 = load i64, ptr %9, align 8, !tbaa !3
  %33 = getelementptr inbounds nuw i64, ptr %31, i64 %32
  store i64 %30, ptr %33, align 8, !tbaa !3
  br label %34

34:                                               ; preds = %20
  %35 = load i64, ptr %9, align 8, !tbaa !3
  %36 = add i64 %35, 1
  store i64 %36, ptr %9, align 8, !tbaa !3
  br label %15, !llvm.loop !20

37:                                               ; preds = %13, %19
  ret void
}