; Function Attrs: nounwind uwtable
define hidden void @mbedtls_mpi_core_cond_assign(ptr noundef %0, ptr noundef readonly %1, i64 noundef %2, i64 noundef %3) local_unnamed_addr #5 {
  %5 = icmp ne ptr %0, %1
  %6 = icmp ne i64 %2, 0
  %or.cond = and i1 %5, %6
  br i1 %or.cond, label %.lr.ph, label %.loopexit

.lr.ph:                                           ; preds = %4, %.lr.ph
  %.013 = phi i64 [ %13, %.lr.ph ], [ 0, %4 ]
  %7 = getelementptr inbounds nuw i64, ptr %1, i64 %.013
  %8 = load i64, ptr %7, align 8, !tbaa !3
  %9 = getelementptr inbounds nuw i64, ptr %0, i64 %.013
  %10 = load i64, ptr %9, align 8, !tbaa !3
  %11 = tail call { i64, i64, i64 } asm sideeffect "and  $0, $1                      \0A\09not  $0                              \0A\09and  $0, $2                      \0A\09or   $1, $2                            \0A\09", "=&{di},=&{si},=&{ax},0,1,2,~{dirflag},~{fpsr},~{flags}"(i64 %3, i64 %8, i64 %10) #10, !srcloc !15
  %12 = extractvalue { i64, i64, i64 } %11, 2
  store i64 %12, ptr %9, align 8, !tbaa !3
  %13 = add nuw i64 %.013, 1
  %exitcond.not = icmp eq i64 %13, %2
  br i1 %exitcond.not, label %.loopexit, label %.lr.ph, !llvm.loop !16

.loopexit:                                        ; preds = %.lr.ph, %4
  ret void
}